(dp0
S's1421803'
p1
(dp2
S'content'
p3
(dp4
S'0'
p5
I3
sS'+1'
p6
I13
sS'-1'
p7
I10
ssS'relevance'
p8
(dp9
g5
I12
sg6
I14
sg7
I0
ssS'presentation'
p10
(dp11
g5
I3
sg6
I18
sg7
I5
ssS'comment'
p12
c__builtin__
set
p13
((lp14
tp15
Rp16
ssS's1337682'
p17
(dp18
g3
(dp19
g5
I15
sg6
I27
sg7
I6
ssg8
(dp20
g5
I31
sg6
I13
sg7
I4
ssg10
(dp21
g5
I17
sg6
I25
sg7
I6
ssg12
g13
((lp22
tp23
Rp24
ssS's1413927'
p25
(dp26
g3
(dp27
g5
I18
sg6
I10
sg7
I15
ssg8
(dp28
g5
I4
sg6
I21
sg7
I18
ssg10
(dp29
g5
I1
sg6
I41
sg7
I1
ssg12
g13
((lp30
V'Interesting topic and well presented.'
p31
atp32
Rp33
ssS's1408218'
p34
(dp35
g3
(dp36
g5
I15
sg6
I3
sg7
I16
ssg8
(dp37
g5
I7
sg6
I18
sg7
I9
ssg10
(dp38
g5
I2
sg6
I6
sg7
I26
ssg12
g13
((lp39
V'The part with explanations could have had audio.'
p40
aV"The intro music was annoying and didn't seem professional and something that we could take seriously. It doesn't seem that the person put much effort into this since that the video is pretty much clips from various sources."
p41
atp42
Rp43
ssS's1324885'
p44
(dp45
g3
(dp46
g5
I13
sg6
I4
sg7
I7
ssg8
(dp47
g5
I1
sg6
I18
sg7
I5
ssg10
(dp48
g5
I4
sg6
I6
sg7
I14
ssg12
g13
((lp49
V'Could use a combination of video and slides (to present numbers etc.)
p50
aV'Interesting and relevant topic. Nice to see a change of pace from the usual text-on-a-slide-plus-a-few-pictures presentation.'
p51
atp52
Rp53
ssS's1418923'
p54
(dp55
g3
(dp56
g5
I0
sg6
I28
sg7
I1
ssg8
(dp57
g5
I0
sg6
I28
sg7
I1
ssg10
(dp58
g5
I0
sg6
I29
sg7
I0
ssg12
g13
((lp59
V"Best presentation out of all the ones I've had to rate."
p60
aV'Good examples and presentation.'
p61
aV'Fancy.'
p62
atp63
Rp64
ssS's1453013'
p65
(dp66
g3
(dp67
g5
I35
sg6
I40
sg7
I10
ssg8
(dp68
g5
I31
sg6
I54
sg7
I0
ssg10
(dp69
g5
I40
sg6
I24
sg7
I21
ssg12
g13
((lp70
V'Presentation needs a lot more effort although the message is clear.'
p71
aV'I felt that using 4 bullet points in a square formation does not look very professional. Also the content is almost word-for-word what has already been covered in the course.'
p72
aV'Very interesting and well made video on an incredibly relevant topic.'
p73
atp74
Rp75
ssS's1453391'
p76
(dp77
g3
(dp78
g5
I19
sg6
I26
sg7
I1
ssg8
(dp79
g5
I2
sg6
I34
sg7
I10
ssg10
(dp80
g5
I9
sg6
I31
sg7
I6
ssg12
g13
((lp81
V'Machine voice is difficult to follow but interesting presentation and content.'
p82
aV'Good idea!'
p83
aV'Great idea using text to speech to talk about AI. And the green  text on a black background makes you think of the matrix. Great job! '
p84
atp85
Rp86
ssS's1449640'
p87
(dp88
g3
(dp89
g5
I10
sg6
I18
sg7
I1
ssg8
(dp90
g5
I0
sg6
I27
sg7
I2
ssg10
(dp91
g5
I13
sg6
I0
sg7
I16
ssg12
g13
((lp92
V'The computer generated speech is very annoying! No slides at all'
p93
aV'It did not seem like the video was very related to the content
p94
atp95
Rp96
ssS's1452896'
p97
(dp98
g3
(dp99
g5
I9
sg6
I35
sg7
I0
ssg8
(dp100
g5
I1
sg6
I36
sg7
I7
ssg10
(dp101
g5
I20
sg6
I24
sg7
I0
ssg12
g13
((lp102
V'- Very clear! Good use of conveying majority of info through voice presentation and just using slides to highlight info \u005cr\u005cn- Great intro and conclusion! \u005cr\u005cn- Enunciation of words and speed of speech were perfect. Slides could have been a bit cleaner (way that info was displayed was cluttered at times
p103
atp104
Rp105
ssS's1430428'
p106
(dp107
g3
(dp108
g5
I17
sg6
I6
sg7
I15
ssg8
(dp109
g5
I5
sg6
I22
sg7
I11
ssg10
(dp110
g5
I1
sg6
I21
sg7
I16
ssg12
g13
((lp111
V'I like your choice of music.'
p112
aV'There was a constructed presentation
p113
atp114
Rp115
ssS's1447357'
p116
(dp117
g3
(dp118
g5
I0
sg6
I0
sg7
I22
ssg8
(dp119
g5
I0
sg6
I0
sg7
I22
ssg10
(dp120
g5
I0
sg6
I0
sg7
I22
ssg12
g13
((lp121
V"It looks like he didn't submit his video."
p122
aV'Placeholder video is submitted.'
p123
atp124
Rp125
ssS's1368635'
p126
(dp127
g3
(dp128
g5
I23
sg6
I8
sg7
I3
ssg8
(dp129
g5
I16
sg6
I15
sg7
I3
ssg10
(dp130
g5
I0
sg6
I18
sg7
I16
ssg12
g13
((lp131
V'Very interesting and relevant topic
p132
aV'very good presentation'
p133
atp134
Rp135
ssS's1308568'
p136
(dp137
g3
(dp138
g5
I7
sg6
I9
sg7
I3
ssg8
(dp139
g5
I0
sg6
I18
sg7
I1
ssg10
(dp140
g5
I8
sg6
I7
sg7
I4
ssg12
g13
((lp141
tp142
Rp143
ssS's1362882'
p144
(dp145
g3
(dp146
g5
I5
sg6
I5
sg7
I1
ssg8
(dp147
g5
I4
sg6
I7
sg7
I0
ssg10
(dp148
g5
I0
sg6
I4
sg7
I7
ssg12
g13
((lp149
V'Subskribeddd.. 
p150
atp151
Rp152
ssS's1447681'
p153
(dp154
g3
(dp155
g5
I2
sg6
I8
sg7
I1
ssg8
(dp156
g5
I1
sg6
I10
sg7
I0
ssg10
(dp157
g5
I1
sg6
I4
sg7
I6
ssg12
g13
((lp158
V'Very relevant topic and good content
p159
aV'Why is there no sound? It is really hard to follow the text
p160
aV'Even though the content was good
p161
aV'There is a bit too much content on each slide with not enough time to read the information unless you pause the video. '
p162
atp163
Rp164
ssS's1409854'
p165
(dp166
g3
(dp167
g5
I4
sg6
I5
sg7
I0
ssg8
(dp168
g5
I5
sg6
I4
sg7
I0
ssg10
(dp169
g5
I4
sg6
I5
sg7
I0
ssg12
g13
((lp170
tp171
Rp172
ssS's1431261'
p173
(dp174
g3
(dp175
g5
I1
sg6
I31
sg7
I6
ssg8
(dp176
g5
I5
sg6
I23
sg7
I10
ssg10
(dp177
g5
I0
sg6
I31
sg7
I7
ssg12
g13
((lp178
tp179
Rp180
ssS's1409857'
p181
(dp182
g3
(dp183
g5
I24
sg6
I17
sg7
I11
ssg8
(dp184
g5
I4
sg6
I32
sg7
I16
ssg10
(dp185
g5
I38
sg6
I8
sg7
I6
ssg12
g13
((lp186
V'could have used some graphics'
p187
aV'The presentation was just boring
p188
atp189
Rp190
ssS's1436674'
p191
(dp192
g3
(dp193
g5
I0
sg6
I43
sg7
I1
ssg8
(dp194
g5
I0
sg6
I44
sg7
I0
ssg10
(dp195
g5
I0
sg6
I44
sg7
I0
ssg12
g13
((lp196
V'I liked the video
p197
aV'- The use of drawings etc was awesome! Very advanced on a technical level! \u005cr\u005cn- Super thorough!! Very very very captivating! Great job! '
p198
atp199
Rp200
ssS's1410047'
p201
(dp202
g3
(dp203
g5
I21
sg6
I16
sg7
I3
ssg8
(dp204
g5
I1
sg6
I33
sg7
I6
ssg10
(dp205
g5
I2
sg6
I28
sg7
I10
ssg12
g13
((lp206
V'Something weird happening in the audio track at the start but apart from that a very good and interesting talk.\u005cr\u005cn\u005cr\u005cnVery good diagrams.'
p207
atp208
Rp209
ssS's1444306'
p210
(dp211
g3
(dp212
g5
I8
sg6
I17
sg7
I1
ssg8
(dp213
g5
I1
sg6
I24
sg7
I1
ssg10
(dp214
g5
I8
sg6
I18
sg7
I0
ssg12
g13
((lp215
tp216
Rp217
ssS's1432877'
p218
(dp219
g3
(dp220
g5
I4
sg6
I20
sg7
I5
ssg8
(dp221
g5
I1
sg6
I22
sg7
I6
ssg10
(dp222
g5
I4
sg6
I15
sg7
I10
ssg12
g13
((lp223
V'The computer generated speech is very annoying.'
p224
atp225
Rp226
ssS's1427590'
p227
(dp228
g3
(dp229
g5
I16
sg6
I4
sg7
I5
ssg8
(dp230
g5
I0
sg6
I25
sg7
I0
ssg10
(dp231
g5
I6
sg6
I11
sg7
I8
ssg12
g13
((lp232
V'Good content and discussion on AI issues. Presentation itself was a bit monotone and hard to follow.'
p233
atp234
Rp235
ssS's1451572'
p236
(dp237
g3
(dp238
g5
I4
sg6
I23
sg7
I18
ssg8
(dp239
g5
I6
sg6
I18
sg7
I21
ssg10
(dp240
g5
I3
sg6
I16
sg7
I26
ssg12
g13
((lp241
V'It would have been interesting to hear more about the laws behind content sharing and what the legal/ethical issues are.'
p242
atp243
Rp244
ssS's1441731'
p245
(dp246
g3
(dp247
g5
I3
sg6
I2
sg7
I1
ssg8
(dp248
g5
I3
sg6
I1
sg7
I2
ssg10
(dp249
g5
I4
sg6
I1
sg7
I1
ssg12
g13
((lp250
V'The topic is not really related to the course. Too many text and too little pictures.'
p251
atp252
Rp253
ssS's1445541'
p254
(dp255
g3
(dp256
g5
I20
sg6
I5
sg7
I4
ssg8
(dp257
g5
I15
sg6
I8
sg7
I6
ssg10
(dp258
g5
I6
sg6
I6
sg7
I17
ssg12
g13
((lp259
V'Nobody speaking
p260
atp261
Rp262
ssS's1402411'
p263
(dp264
g3
(dp265
g5
I8
sg6
I15
sg7
I8
ssg8
(dp266
g5
I11
sg6
I14
sg7
I6
ssg10
(dp267
g5
I25
sg6
I2
sg7
I4
ssg12
g13
((lp268
V'- Should start with an all encompassing intro so we know what you will be talking about \u005cr\u005cn- Interesting topic! Love the use of animation \u005cr\u005cn- The comparison of complexity between Latex and MS Word was helpful \u005cr\u005cn- Ended abruptly -- needed a conclusion  '
p269
atp270
Rp271
ssS's1401631'
p272
(dp273
g3
(dp274
g5
I0
sg6
I0
sg7
I34
ssg8
(dp275
g5
I0
sg6
I0
sg7
I34
ssg10
(dp276
g5
I0
sg6
I0
sg7
I34
ssg12
g13
((lp277
V'i cannot watch the video'
p278
aV'Video does not play'
p279
aV'Video not playing.'
p280
aV'Nothing displayed -- no video or information '
p281
atp282
Rp283
ssS's1427856'
p284
(dp285
g3
(dp286
g5
I13
sg6
I13
sg7
I9
ssg8
(dp287
g5
I7
sg6
I4
sg7
I24
ssg10
(dp288
g5
I18
sg6
I1
sg7
I16
ssg12
g13
((lp289
V'Presentation and discussion were good. I struggled with paying attention to the concept with the only partially relevant images being shown. Also random pauses in video.'
p290
aV'very informative video although presentation could have been more engaging. Also not sure about cloud storage having "virtually unlimited space" - from what I know
p291
atp292
Rp293
ssS's1411403'
p294
(dp295
g3
(dp296
g5
I21
sg6
I33
sg7
I7
ssg8
(dp297
g5
I24
sg6
I19
sg7
I18
ssg10
(dp298
g5
I26
sg6
I30
sg7
I5
ssg12
g13
((lp299
V"Not much information in talk.  Don't think much time or research put into video.\u005cr\u005cn\u005cr\u005cnInformation given is useful (for what there is).  \u005cr\u005cn\u005cr\u005cnWorth noting that Stikbox was actually patented."
p300
atp301
Rp302
ssS's1441759'
p303
(dp304
g3
(dp305
g5
I5
sg6
I13
sg7
I10
ssg8
(dp306
g5
I8
sg6
I12
sg7
I8
ssg10
(dp307
g5
I11
sg6
I12
sg7
I5
ssg12
g13
((lp308
V'A large portion of the video is content taken from other sources like CNN and FOX. '
p309
atp310
Rp311
ssS's1452672'
p312
(dp313
g3
(dp314
g5
I7
sg6
I4
sg7
I18
ssg8
(dp315
g5
I7
sg6
I17
sg7
I5
ssg10
(dp316
g5
I3
sg6
I14
sg7
I12
ssg12
g13
((lp317
V'Most energetic presentation so far.'
p318
atp319
Rp320
ssS's1410031'
p321
(dp322
g3
(dp323
g5
I3
sg6
I45
sg7
I0
ssg8
(dp324
g5
I11
sg6
I34
sg7
I3
ssg10
(dp325
g5
I9
sg6
I17
sg7
I22
ssg12
g13
((lp326
V'Quite a lot of information and nice explanation
p327
atp328
Rp329
ssS's1424285'
p330
(dp331
g3
(dp332
g5
I3
sg6
I30
sg7
I13
ssg8
(dp333
g5
I7
sg6
I29
sg7
I10
ssg10
(dp334
g5
I31
sg6
I0
sg7
I15
ssg12
g13
((lp335
V'Important topic and good discussion presented for it.'
p336
aV'- Good! However
p337
atp338
Rp339
ssS's1449315'
p340
(dp341
g3
(dp342
g5
I17
sg6
I11
sg7
I6
ssg8
(dp343
g5
I1
sg6
I25
sg7
I8
ssg10
(dp344
g5
I17
sg6
I17
sg7
I0
ssg12
g13
((lp345
V'This is a hot topic in IT at the moment. In my opinion you could have talked more about what we can and should do to eliminate these prejudices
p346
atp347
Rp348
ssS's1431686'
p349
(dp350
g3
(dp351
g5
I5
sg6
I34
sg7
I1
ssg8
(dp352
g5
I4
sg6
I30
sg7
I6
ssg10
(dp353
g5
I14
sg6
I25
sg7
I1
ssg12
g13
((lp354
tp355
Rp356
ssS's1452923'
p357
(dp358
g3
(dp359
g5
I24
sg6
I19
sg7
I0
ssg8
(dp360
g5
I24
sg6
I17
sg7
I2
ssg10
(dp361
g5
I2
sg6
I40
sg7
I1
ssg12
g13
((lp362
V'I think this is a very good video presentation.'
p363
atp364
Rp365
ssS's1451986'
p366
(dp367
g3
(dp368
g5
I9
sg6
I11
sg7
I2
ssg8
(dp369
g5
I9
sg6
I11
sg7
I2
ssg10
(dp370
g5
I2
sg6
I10
sg7
I10
ssg12
g13
((lp371
V"Too much text in the slides.  Fell into Powerpoint Trap.\u005cr\u005cn\u005cr\u005cnDidn't feel like I learned anything from talk despite all the talking and slides and this being an area I don't know much about.\u005cr\u005cn\u005cr\u005cnI liked the pictures of unicorns though."
p372
atp373
Rp374
ssS's1450697'
p375
(dp376
g3
(dp377
g5
I13
sg6
I8
sg7
I2
ssg8
(dp378
g5
I4
sg6
I9
sg7
I10
ssg10
(dp379
g5
I2
sg6
I17
sg7
I4
ssg12
g13
((lp380
tp381
Rp382
ssS's1442231'
p383
(dp384
g3
(dp385
g5
I0
sg6
I16
sg7
I5
ssg8
(dp386
g5
I0
sg6
I21
sg7
I0
ssg10
(dp387
g5
I1
sg6
I20
sg7
I0
ssg12
g13
((lp388
V'Nice ideas and presentation
p389
aV'Overall good presentation and relevant to the ideas of job loss in AI. Ending credits too long and took away time for full-length presentation.'
p390
atp391
Rp392
ssS's1345382'
p393
(dp394
g3
(dp395
g5
I13
sg6
I15
sg7
I0
ssg8
(dp396
g5
I3
sg6
I22
sg7
I3
ssg10
(dp397
g5
I9
sg6
I15
sg7
I4
ssg12
g13
((lp398
tp399
Rp400
ssS's1455220'
p401
(dp402
g3
(dp403
g5
I5
sg6
I12
sg7
I4
ssg8
(dp404
g5
I2
sg6
I16
sg7
I3
ssg10
(dp405
g5
I11
sg6
I2
sg7
I8
ssg12
g13
((lp406
V'The person does not use their voice to present. Also hard to read text.'
p407
aV'Not a good presentation
p408
aV'Robot voice?'
p409
atp410
Rp411
ssS's1551411'
p412
(dp413
g3
(dp414
g5
I1
sg6
I22
sg7
I7
ssg8
(dp415
g5
I1
sg6
I17
sg7
I12
ssg10
(dp416
g5
I12
sg6
I14
sg7
I4
ssg12
g13
((lp417
tp418
Rp419
ssS's1452133'
p420
(dp421
g3
(dp422
g5
I5
sg6
I25
sg7
I5
ssg8
(dp423
g5
I3
sg6
I31
sg7
I1
ssg10
(dp424
g5
I3
sg6
I30
sg7
I2
ssg12
g13
((lp425
tp426
Rp427
ssS's1432790'
p428
(dp429
g3
(dp430
g5
I26
sg6
I20
sg7
I13
ssg8
(dp431
g5
I34
sg6
I14
sg7
I11
ssg10
(dp432
g5
I42
sg6
I5
sg7
I12
ssg12
g13
((lp433
tp434
Rp435
ssS's1671501'
p436
(dp437
g3
(dp438
g5
I5
sg6
I10
sg7
I0
ssg8
(dp439
g5
I4
sg6
I10
sg7
I1
ssg10
(dp440
g5
I4
sg6
I7
sg7
I4
ssg12
g13
((lp441
tp442
Rp443
ssS's1407470'
p444
(dp445
g3
(dp446
g5
I18
sg6
I11
sg7
I15
ssg8
(dp447
g5
I10
sg6
I8
sg7
I26
ssg10
(dp448
g5
I0
sg6
I0
sg7
I44
ssg12
g13
((lp449
V'- There was no sound
p450
atp451
Rp452
ssS's1449090'
p453
(dp454
g3
(dp455
g5
I0
sg6
I13
sg7
I9
ssg8
(dp456
g5
I1
sg6
I12
sg7
I9
ssg10
(dp457
g5
I8
sg6
I12
sg7
I2
ssg12
g13
((lp458
V'Really well-prepared video. The examples with fake mistakes were adding to its high quality content!'
p459
aV'I thinks this good video. The student definitely
p460
aV'A nice video concept and music
p461
atp462
Rp463
ssS's1407472'
p464
(dp465
g3
(dp466
g5
I12
sg6
I0
sg7
I15
ssg8
(dp467
g5
I4
sg6
I2
sg7
I21
ssg10
(dp468
g5
I2
sg6
I0
sg7
I25
ssg12
g13
((lp469
V'No audio
p470
aV'No voice?!?'
p471
aV'Mostly quotes about trump'
p472
aV'No sound 
p473
atp474
Rp475
ssS's1302265'
p476
(dp477
g3
(dp478
g5
I12
sg6
I17
sg7
I8
ssg8
(dp479
g5
I4
sg6
I15
sg7
I18
ssg10
(dp480
g5
I9
sg6
I13
sg7
I15
ssg12
g13
((lp481
tp482
Rp483
ssS's1675478'
p484
(dp485
g3
(dp486
g5
I4
sg6
I27
sg7
I0
ssg8
(dp487
g5
I18
sg6
I11
sg7
I2
ssg10
(dp488
g5
I9
sg6
I7
sg7
I15
ssg12
g13
((lp489
V'Clearer visualization would have made it easier to follow.'
p490
aV'I believe this video contains useful information
p491
atp492
Rp493
ssS's1436084'
p494
(dp495
g3
(dp496
g5
I5
sg6
I21
sg7
I2
ssg8
(dp497
g5
I9
sg6
I19
sg7
I0
ssg10
(dp498
g5
I0
sg6
I15
sg7
I13
ssg12
g13
((lp499
V'Visuals informative to the dialogue and made the presentation entertaining and relevant. Clear and well done dialogue.'
p500
atp501
Rp502
ssS's1436898'
p503
(dp504
g3
(dp505
g5
I0
sg6
I18
sg7
I6
ssg8
(dp506
g5
I6
sg6
I17
sg7
I1
ssg10
(dp507
g5
I12
sg6
I9
sg7
I3
ssg12
g13
((lp508
V'Nice ethical topic which does not just apply to wearable technology. Unfortunately it is becoming more and more difficult to ensure our own privacy on the internet - see the recent Investigatory Powers Bill that was passed. Could have provided more examples of specific issues that have arisen regarding security of wearables'
p509
atp510
Rp511
ssS's1421057'
p512
(dp513
g3
(dp514
g5
I4
sg6
I3
sg7
I18
ssg8
(dp515
g5
I4
sg6
I4
sg7
I17
ssg10
(dp516
g5
I25
sg6
I0
sg7
I0
ssg12
g13
((lp517
V'This seems less like ethics of self driving cars and more ethics of specifically what a self driving car should do when it crashes. (The relevance would be higher
p518
aV'This seems less like ethics of self driving cars and more ethics of specifically what a self driving car should do when it crashes.'
p519
aV'Interesting and relevant topic. Could have been more visually appealing.'
p520
atp521
Rp522
ssS's1454527'
p523
(dp524
g3
(dp525
g5
I2
sg6
I18
sg7
I7
ssg8
(dp526
g5
I3
sg6
I24
sg7
I0
ssg10
(dp527
g5
I2
sg6
I25
sg7
I0
ssg12
g13
((lp528
V'Great job!'
p529
atp530
Rp531
ssS's1411707'
p532
(dp533
g3
(dp534
g5
I0
sg6
I30
sg7
I11
ssg8
(dp535
g5
I0
sg6
I24
sg7
I17
ssg10
(dp536
g5
I7
sg6
I26
sg7
I8
ssg12
g13
((lp537
tp538
Rp539
ssS's1410016'
p540
(dp541
g3
(dp542
g5
I36
sg6
I5
sg7
I2
ssg8
(dp543
g5
I1
sg6
I8
sg7
I34
ssg10
(dp544
g5
I17
sg6
I10
sg7
I16
ssg12
g13
((lp545
V'Nice video
p546
atp547
Rp548
ssS's1438687'
p549
(dp550
g3
(dp551
g5
I6
sg6
I14
sg7
I12
ssg8
(dp552
g5
I14
sg6
I17
sg7
I1
ssg10
(dp553
g5
I0
sg6
I25
sg7
I7
ssg12
g13
((lp554
V"Definitely entertaining but didn't provide too much information."
p555
aV"Too many presentations about Trump. This one's funny though. Well done."
p556
aV'No effort. The video was just clips about Trump. He should have elaborated on the points.'
p557
atp558
Rp559
ssS's1443483'
p560
(dp561
g3
(dp562
g5
I1
sg6
I19
sg7
I7
ssg8
(dp563
g5
I5
sg6
I5
sg7
I17
ssg10
(dp564
g5
I17
sg6
I2
sg7
I8
ssg12
g13
((lp565
tp566
Rp567
ssS's1326437'
p568
(dp569
g3
(dp570
g5
I5
sg6
I7
sg7
I20
ssg8
(dp571
g5
I3
sg6
I24
sg7
I5
ssg10
(dp572
g5
I9
sg6
I13
sg7
I10
ssg12
g13
((lp573
V'too short'
p574
atp575
Rp576
ssS's1342226'
p577
(dp578
g3
(dp579
g5
I4
sg6
I8
sg7
I25
ssg8
(dp580
g5
I16
sg6
I21
sg7
I0
ssg10
(dp581
g5
I8
sg6
I13
sg7
I16
ssg12
g13
((lp582
tp583
Rp584
ssS's1241857'
p585
(dp586
g3
(dp587
g5
I5
sg6
I8
sg7
I5
ssg8
(dp588
g5
I5
sg6
I0
sg7
I13
ssg10
(dp589
g5
I8
sg6
I4
sg7
I6
ssg12
g13
((lp590
V'I think there was something wrong when you recorded your sound because it was almost impossible to listen to due to all the extra noise from the microphone.'
p591
aV'The audio quality is awful. The elder scrolls and Fallout are different series
p592
atp593
Rp594
ssS's1569197'
p595
(dp596
g3
(dp597
g5
I24
sg6
I24
sg7
I5
ssg8
(dp598
g5
I13
sg6
I26
sg7
I14
ssg10
(dp599
g5
I7
sg6
I0
sg7
I46
ssg12
g13
((lp600
tp601
Rp602
ssS's1225708'
p603
(dp604
g3
(dp605
g5
I21
sg6
I15
sg7
I5
ssg8
(dp606
g5
I4
sg6
I35
sg7
I2
ssg10
(dp607
g5
I3
sg6
I22
sg7
I16
ssg12
g13
((lp608
V'Good summary of an interesting dispute
p609
atp610
Rp611
ssS's1332950'
p612
(dp613
g3
(dp614
g5
I0
sg6
I30
sg7
I0
ssg8
(dp615
g5
I20
sg6
I8
sg7
I2
ssg10
(dp616
g5
I6
sg6
I24
sg7
I0
ssg12
g13
((lp617
tp618
Rp619
ssS's1432213'
p620
(dp621
g3
(dp622
g5
I0
sg6
I0
sg7
I22
ssg8
(dp623
g5
I0
sg6
I0
sg7
I22
ssg10
(dp624
g5
I0
sg6
I0
sg7
I22
ssg12
g13
((lp625
V'no video'
p626
aV'not able to play the video'
p627
aV'No video.'
p628
atp629
Rp630
ssS's1456255'
p631
(dp632
g3
(dp633
g5
I25
sg6
I51
sg7
I9
ssg8
(dp634
g5
I11
sg6
I72
sg7
I2
ssg10
(dp635
g5
I33
sg6
I0
sg7
I52
ssg12
g13
((lp636
V'Bland presentation.'
p637
aV'Video was not very interesting
p638
atp639
Rp640
ssS's1408714'
p641
(dp642
g3
(dp643
g5
I1
sg6
I30
sg7
I0
ssg8
(dp644
g5
I3
sg6
I15
sg7
I13
ssg10
(dp645
g5
I9
sg6
I21
sg7
I1
ssg12
g13
((lp646
tp647
Rp648
ssS's1454439'
p649
(dp650
g3
(dp651
g5
I8
sg6
I3
sg7
I2
ssg8
(dp652
g5
I9
sg6
I2
sg7
I2
ssg10
(dp653
g5
I5
sg6
I0
sg7
I8
ssg12
g13
((lp654
V'No sound
p655
atp656
Rp657
ssS's1330027'
p658
(dp659
g3
(dp660
g5
I7
sg6
I33
sg7
I0
ssg8
(dp661
g5
I18
sg6
I21
sg7
I1
ssg10
(dp662
g5
I0
sg6
I40
sg7
I0
ssg12
g13
((lp663
tp664
Rp665
ssS's1448851'
p666
(dp667
g3
(dp668
g5
I0
sg6
I9
sg7
I13
ssg8
(dp669
g5
I2
sg6
I9
sg7
I11
ssg10
(dp670
g5
I1
sg6
I7
sg7
I14
ssg12
g13
((lp671
V'Very interesting and unique video structure
p672
aV'Only placholder video
p673
atp674
Rp675
ssS's1428984'
p676
(dp677
g3
(dp678
g5
I7
sg6
I10
sg7
I4
ssg8
(dp679
g5
I9
sg6
I9
sg7
I3
ssg10
(dp680
g5
I16
sg6
I0
sg7
I5
ssg12
g13
((lp681
tp682
Rp683
ssS's1346558'
p684
(dp685
g3
(dp686
g5
I3
sg6
I32
sg7
I6
ssg8
(dp687
g5
I10
sg6
I26
sg7
I5
ssg10
(dp688
g5
I9
sg6
I25
sg7
I7
ssg12
g13
((lp689
tp690
Rp691
ssS's1402587'
p692
(dp693
g3
(dp694
g5
I6
sg6
I12
sg7
I31
ssg8
(dp695
g5
I32
sg6
I14
sg7
I3
ssg10
(dp696
g5
I0
sg6
I39
sg7
I10
ssg12
g13
((lp697
V'Perfect video.'
p698
aV'I found it difficult to understand what he was saying and the message of the presentation. It felt as if he was trying too hard to make the presentation graphical.'
p699
aV"Some parts of the video are screenshots with Chinese writing
p700
atp701
Rp702
ssS's1452352'
p703
(dp704
g3
(dp705
g5
I24
sg6
I11
sg7
I7
ssg8
(dp706
g5
I22
sg6
I19
sg7
I1
ssg10
(dp707
g5
I23
sg6
I14
sg7
I5
ssg12
g13
((lp708
V'Overall the presentation is professional
p709
atp710
Rp711
ssS's1442772'
p712
(dp713
g3
(dp714
g5
I30
sg6
I42
sg7
I1
ssg8
(dp715
g5
I32
sg6
I33
sg7
I8
ssg10
(dp716
g5
I56
sg6
I8
sg7
I9
ssg12
g13
((lp717
V'Well researched
p718
atp719
Rp720
ssS's1322909'
p721
(dp722
g3
(dp723
g5
I18
sg6
I23
sg7
I1
ssg8
(dp724
g5
I24
sg6
I18
sg7
I0
ssg10
(dp725
g5
I28
sg6
I13
sg7
I1
ssg12
g13
((lp726
V'A bit dry for the presentation
p727
atp728
Rp729
ssS's1475975'
p730
(dp731
g3
(dp732
g5
I5
sg6
I6
sg7
I6
ssg8
(dp733
g5
I11
sg6
I1
sg7
I5
ssg10
(dp734
g5
I6
sg6
I8
sg7
I3
ssg12
g13
((lp735
V'Definition of "hacker" vague.  Whole talk kind of vague.\u005cr\u005cn\u005cr\u005cnThere\u005c's a difference between leaking confidential information that you have access to (Snowden/Manning) and hacking to gain confidential information.\u005cr\u005cn\u005cr\u005cnIn cases of Snowden/Manning there was good moral reason to do so as well.\u005cr\u005cn\u005cr\u005cnAssange never got extradited to Sweden.  He is facing rape charges in Sweden and has an arrest warrant filed against him by the US government with no charges though.  He is in the Equador embassy to avoid trial in Sweden where he fears he may be extradited to the US and held under the Espionage Act.'
p736
atp737
Rp738
ssS's1440799'
p739
(dp740
g3
(dp741
g5
I7
sg6
I22
sg7
I9
ssg8
(dp742
g5
I11
sg6
I21
sg7
I6
ssg10
(dp743
g5
I1
sg6
I16
sg7
I21
ssg12
g13
((lp744
V'No audio?'
p745
aV'sound please'
p746
aV'Content looks well researched but could have done with a spoken track over the top to help convey the information better.\u005cr\u005cn\u005cr\u005cn'
p747
atp748
Rp749
ssS's1456127'
p750
(dp751
g3
(dp752
g5
I4
sg6
I4
sg7
I3
ssg8
(dp753
g5
I4
sg6
I7
sg7
I0
ssg10
(dp754
g5
I3
sg6
I2
sg7
I6
ssg12
g13
((lp755
V'Very current and relevant topic with lots of content backing up your argument. Very interesting video.'
p756
atp757
Rp758
ssS's1333465'
p759
(dp760
g3
(dp761
g5
I16
sg6
I0
sg7
I10
ssg8
(dp762
g5
I16
sg6
I0
sg7
I10
ssg10
(dp763
g5
I16
sg6
I0
sg7
I10
ssg12
g13
((lp764
V'Cannot play.'
p765
aV'no video'
p766
aV"can't see it\u005cr\u005cn"
p767
aV'Unable to view video'
p768
aV'Cannot play the video.'
p769
aV'No video '
p770
aV'No video.'
p771
atp772
Rp773
ssS's1452595'
p774
(dp775
g3
(dp776
g5
I5
sg6
I0
sg7
I7
ssg8
(dp777
g5
I1
sg6
I7
sg7
I4
ssg10
(dp778
g5
I3
sg6
I7
sg7
I2
ssg12
g13
((lp779
tp780
Rp781
ssS's1317642'
p782
(dp783
g3
(dp784
g5
I3
sg6
I0
sg7
I30
ssg8
(dp785
g5
I2
sg6
I0
sg7
I31
ssg10
(dp786
g5
I3
sg6
I0
sg7
I30
ssg12
g13
((lp787
V'As a placeholder
p788
aV'Just placeholder video'
p789
atp790
Rp791
ssS's1407459'
p792
(dp793
g3
(dp794
g5
I1
sg6
I15
sg7
I2
ssg8
(dp795
g5
I2
sg6
I15
sg7
I1
ssg10
(dp796
g5
I11
sg6
I6
sg7
I1
ssg12
g13
((lp797
V"Pretty good choice of topic; it's quite relevant today. Useful information presented."
p798
atp799
Rp800
ssS's1447638'
p801
(dp802
g3
(dp803
g5
I0
sg6
I12
sg7
I15
ssg8
(dp804
g5
I9
sg6
I14
sg7
I4
ssg10
(dp805
g5
I5
sg6
I13
sg7
I9
ssg12
g13
((lp806
V'Funny presentation'
p807
atp808
Rp809
ssS's1443575'
p810
(dp811
g3
(dp812
g5
I3
sg6
I1
sg7
I10
ssg8
(dp813
g5
I3
sg6
I1
sg7
I10
ssg10
(dp814
g5
I2
sg6
I10
sg7
I2
ssg12
g13
((lp815
V'Really well made.'
p816
atp817
Rp818
ssS's1103154'
p819
(dp820
g3
(dp821
g5
I10
sg6
I30
sg7
I4
ssg8
(dp822
g5
I6
sg6
I30
sg7
I8
ssg10
(dp823
g5
I5
sg6
I30
sg7
I9
ssg12
g13
((lp824
tp825
Rp826
ssS's1446364'
p827
(dp828
g3
(dp829
g5
I6
sg6
I5
sg7
I0
ssg8
(dp830
g5
I2
sg6
I5
sg7
I4
ssg10
(dp831
g5
I1
sg6
I10
sg7
I0
ssg12
g13
((lp832
V'Good Job Geca'
p833
aV'Good quality video.\u005cr\u005cn\u005cr\u005cnLots of just reading out the text written on the screen though.'
p834
atp835
Rp836
ssS's1448499'
p837
(dp838
g3
(dp839
g5
I2
sg6
I18
sg7
I0
ssg8
(dp840
g5
I0
sg6
I20
sg7
I0
ssg10
(dp841
g5
I0
sg6
I16
sg7
I4
ssg12
g13
((lp842
tp843
Rp844
ssS's1450710'
p845
(dp846
g3
(dp847
g5
I0
sg6
I49
sg7
I6
ssg8
(dp848
g5
I21
sg6
I29
sg7
I5
ssg10
(dp849
g5
I10
sg6
I44
sg7
I1
ssg12
g13
((lp850
V'Interesting subject.'
p851
aV'Interesting topic.'
p852
atp853
Rp854
ssS's1453274'
p855
(dp856
g3
(dp857
g5
I3
sg6
I4
sg7
I9
ssg8
(dp858
g5
I4
sg6
I2
sg7
I10
ssg10
(dp859
g5
I4
sg6
I0
sg7
I12
ssg12
g13
((lp860
V'Difficult to follow because of the presentation.'
p861
aV'Good amount of informative content. Could have been better presented with more visual aids.'
p862
atp863
Rp864
ssS's1415713'
p865
(dp866
g3
(dp867
g5
I8
sg6
I24
sg7
I10
ssg8
(dp868
g5
I8
sg6
I13
sg7
I21
ssg10
(dp869
g5
I13
sg6
I16
sg7
I13
ssg12
g13
((lp870
V'This video made me reflect about the downsides of automation
p871
aV"The font is not easy to read. The video doesn't tell me anything about social
p872
atp873
Rp874
ssS's1445757'
p875
(dp876
g3
(dp877
g5
I6
sg6
I24
sg7
I11
ssg8
(dp878
g5
I6
sg6
I29
sg7
I6
ssg10
(dp879
g5
I14
sg6
I27
sg7
I0
ssg12
g13
((lp880
V'- Nice introduction and conclusion! \u005cr\u005cn- Good use of videos and real life example/ interviews \u005cr\u005cn- Your verbal presentation and slides/frames went together really well. Just talk a bit slower
p881
atp882
Rp883
ssS's1431875'
p884
(dp885
g3
(dp886
g5
I8
sg6
I14
sg7
I0
ssg8
(dp887
g5
I0
sg6
I22
sg7
I0
ssg10
(dp888
g5
I8
sg6
I14
sg7
I0
ssg12
g13
((lp889
V'Really well done.'
p890
aV'Well put together video; cuts made it more engaging and not too cheesy. Content relevant and useful to know.'
p891
aV'Very nice polished video.\u005cr\u005cn\u005cr\u005cnDisney suck
p892
atp893
Rp894
ssS's1457539'
p895
(dp896
g3
(dp897
g5
I11
sg6
I38
sg7
I4
ssg8
(dp898
g5
I5
sg6
I35
sg7
I13
ssg10
(dp899
g5
I10
sg6
I27
sg7
I16
ssg12
g13
((lp900
V'Wonderful content
p901
atp902
Rp903
ssS's1424248'
p904
(dp905
g3
(dp906
g5
I12
sg6
I6
sg7
I21
ssg8
(dp907
g5
I18
sg6
I7
sg7
I14
ssg10
(dp908
g5
I0
sg6
I6
sg7
I33
ssg12
g13
((lp909
V"I don't know what I just watched.  \u005cr\u005cn\u005cr\u005cnBrexit something something.\u005cr\u005cn\u005cr\u005cnMy poor ears."
p910
atp911
Rp912
ssS's1408733'
p913
(dp914
g3
(dp915
g5
I17
sg6
I23
sg7
I9
ssg8
(dp916
g5
I9
sg6
I25
sg7
I15
ssg10
(dp917
g5
I8
sg6
I12
sg7
I29
ssg12
g13
((lp918
V'interesting topic and evidence.'
p919
aV'Speaks very slowly
p920
aV'- Very informative! Good linking current events with technology; great use of search engine comparison -- however the use of "cri" and "rac" may create bias in the search \u005cr\u005cn- The presentation was only supposed to be 120 seconds \u005cr\u005cn-  I like your use of Baidu as it is a search engine we usually do not hear too much about in the West \u005cr\u005cn'
p921
aV'Rated down on presentation mainly because of how egregiously this video exceeds the time limit.'
p922
atp923
Rp924
ssS's1513402'
p925
(dp926
g3
(dp927
g5
I11
sg6
I3
sg7
I21
ssg8
(dp928
g5
I12
sg6
I4
sg7
I19
ssg10
(dp929
g5
I0
sg6
I25
sg7
I10
ssg12
g13
((lp930
V'The best one in my set of videos!'
p931
atp932
Rp933
ssS's1442105'
p934
(dp935
g3
(dp936
g5
I9
sg6
I3
sg7
I0
ssg8
(dp937
g5
I3
sg6
I9
sg7
I0
ssg10
(dp938
g5
I1
sg6
I1
sg7
I10
ssg12
g13
((lp939
V'Very quiet audio'
p940
atp941
Rp942
ssS's1444974'
p943
(dp944
g3
(dp945
g5
I2
sg6
I22
sg7
I21
ssg8
(dp946
g5
I17
sg6
I17
sg7
I11
ssg10
(dp947
g5
I3
sg6
I5
sg7
I37
ssg12
g13
((lp948
V"The video clips
p949
atp950
Rp951
ssS's1406123'
p952
(dp953
g3
(dp954
g5
I13
sg6
I14
sg7
I0
ssg8
(dp955
g5
I0
sg6
I27
sg7
I0
ssg10
(dp956
g5
I2
sg6
I19
sg7
I6
ssg12
g13
((lp957
V'The animations were nice but it felt it but I think the animations are more appropriate for a very short video. I would have liked a voice over.'
p958
atp959
Rp960
ssS's1444242'
p961
(dp962
g3
(dp963
g5
I15
sg6
I1
sg7
I0
ssg8
(dp964
g5
I4
sg6
I7
sg7
I5
ssg10
(dp965
g5
I8
sg6
I7
sg7
I1
ssg12
g13
((lp966
tp967
Rp968
ssS's1449363'
p969
(dp970
g3
(dp971
g5
I14
sg6
I13
sg7
I0
ssg8
(dp972
g5
I9
sg6
I18
sg7
I0
ssg10
(dp973
g5
I6
sg6
I14
sg7
I7
ssg12
g13
((lp974
tp975
Rp976
ssS's1402967'
p977
(dp978
g3
(dp979
g5
I10
sg6
I21
sg7
I3
ssg8
(dp980
g5
I11
sg6
I23
sg7
I0
ssg10
(dp981
g5
I1
sg6
I30
sg7
I3
ssg12
g13
((lp982
V'Well-presented relevant information.'
p983
aV'- Great presentation! Perfect amount of serious content presented in a fun
p984
atp985
Rp986
ssS's1321070'
p987
(dp988
g3
(dp989
g5
I0
sg6
I0
sg7
I30
ssg8
(dp990
g5
I0
sg6
I0
sg7
I30
ssg10
(dp991
g5
I0
sg6
I0
sg7
I30
ssg12
g13
((lp992
V"Morse code returns gibberish. Is it encrypted or am I using crappy translators? (or it's not intl. morse code? O_O )"
p993
aV'Placeholder video.'
p994
aV'Just a placeholder video'
p995
aV'This is a placeholder video not a real video.'
p996
atp997
Rp998
ssS's1412880'
p999
(dp1000
g3
(dp1001
g5
I8
sg6
I0
sg7
I17
ssg8
(dp1002
g5
I10
sg6
I3
sg7
I12
ssg10
(dp1003
g5
I0
sg6
I0
sg7
I25
ssg12
g13
((lp1004
V'- Hahahah this was so unconventional. There was no voiceover so many of the slides/frames had zero context\u005cr\u005cn- Definitely could be more professional (weed
p1005
aV'Video was entertaining to wattch
p1006
aV'Not much information.  Information given is lacking.\u005cr\u005cn\u005cr\u005cnMixed audio tracks disconcerting.'
p1007
atp1008
Rp1009
ssS's1432223'
p1010
(dp1011
g3
(dp1012
g5
I0
sg6
I9
sg7
I7
ssg8
(dp1013
g5
I0
sg6
I16
sg7
I0
ssg10
(dp1014
g5
I0
sg6
I10
sg7
I6
ssg12
g13
((lp1015
tp1016
Rp1017
ssS's1405324'
p1018
(dp1019
g3
(dp1020
g5
I1
sg6
I7
sg7
I24
ssg8
(dp1021
g5
I3
sg6
I8
sg7
I21
ssg10
(dp1022
g5
I26
sg6
I6
sg7
I0
ssg12
g13
((lp1023
tp1024
Rp1025
ssS's1456537'
p1026
(dp1027
g3
(dp1028
g5
I16
sg6
I27
sg7
I14
ssg8
(dp1029
g5
I10
sg6
I38
sg7
I9
ssg10
(dp1030
g5
I43
sg6
I3
sg7
I11
ssg12
g13
((lp1031
V'Very sparse slides and content lacks focus.'
p1032
atp1033
Rp1034
ssS's1434630'
p1035
(dp1036
g3
(dp1037
g5
I1
sg6
I8
sg7
I3
ssg8
(dp1038
g5
I0
sg6
I9
sg7
I3
ssg10
(dp1039
g5
I1
sg6
I8
sg7
I3
ssg12
g13
((lp1040
V'Good presentation with lots of examples.'
p1041
atp1042
Rp1043
ssS's1443062'
p1044
(dp1045
g3
(dp1046
g5
I1
sg6
I18
sg7
I10
ssg8
(dp1047
g5
I8
sg6
I19
sg7
I2
ssg10
(dp1048
g5
I2
sg6
I20
sg7
I7
ssg12
g13
((lp1049
V'A lot of text
p1050
atp1051
Rp1052
ssS's1455152'
p1053
(dp1054
g3
(dp1055
g5
I28
sg6
I12
sg7
I15
ssg8
(dp1056
g5
I27
sg6
I12
sg7
I16
ssg10
(dp1057
g5
I6
sg6
I7
sg7
I42
ssg12
g13
((lp1058
V'Noise problems. Really quiet as well.'
p1059
aV'Sometimes it is better not to record voice...'
p1060
aV'Bad sound quality'
p1061
aV'Really low level of sound. Difficult to understand sometimes.'
p1062
aV'The content is very interesting and well researched
p1063
atp1064
Rp1065
ssS's1450390'
p1066
(dp1067
g3
(dp1068
g5
I0
sg6
I23
sg7
I5
ssg8
(dp1069
g5
I17
sg6
I6
sg7
I5
ssg10
(dp1070
g5
I1
sg6
I27
sg7
I0
ssg12
g13
((lp1071
V'Not really that relevant but it was entertaining.'
p1072
aV"The content isn't really relevant to the topic
p1073
atp1074
Rp1075
ssS's1453370'
p1076
(dp1077
g3
(dp1078
g5
I28
sg6
I5
sg7
I10
ssg8
(dp1079
g5
I30
sg6
I12
sg7
I1
ssg10
(dp1080
g5
I7
sg6
I4
sg7
I32
ssg12
g13
((lp1081
V"Didn't take into account the specified length. (5 minutes)"
p1082
aV"Didn't take the maximum video length into account."
p1083
aV'The video is way longer than the 2.5 minute requirement. '
p1084
atp1085
Rp1086
ssS's1670821'
p1087
(dp1088
g3
(dp1089
g5
I17
sg6
I28
sg7
I5
ssg8
(dp1090
g5
I16
sg6
I31
sg7
I3
ssg10
(dp1091
g5
I23
sg6
I18
sg7
I9
ssg12
g13
((lp1092
tp1093
Rp1094
ssS's1419115'
p1095
(dp1096
g3
(dp1097
g5
I4
sg6
I6
sg7
I2
ssg8
(dp1098
g5
I2
sg6
I3
sg7
I7
ssg10
(dp1099
g5
I2
sg6
I8
sg7
I2
ssg12
g13
((lp1100
V'Interesting and well put together; overall a really good video. Felt like it could have been more related to the tech industry in particular as this is an ongoing problem.'
p1101
aV'Did not work on my laptop
p1102
atp1103
Rp1104
ssS's1408726'
p1105
(dp1106
g3
(dp1107
g5
I0
sg6
I14
sg7
I2
ssg8
(dp1108
g5
I0
sg6
I8
sg7
I8
ssg10
(dp1109
g5
I1
sg6
I12
sg7
I3
ssg12
g13
((lp1110
V'Well presented
p1111
aV'The quality of video is not very great. but it feels  interactive and raises awareness on the topic.'
p1112
atp1113
Rp1114
ssS's1455790'
p1115
(dp1116
g3
(dp1117
g5
I9
sg6
I17
sg7
I6
ssg8
(dp1118
g5
I9
sg6
I23
sg7
I0
ssg10
(dp1119
g5
I6
sg6
I17
sg7
I9
ssg12
g13
((lp1120
tp1121
Rp1122
ssS's1417085'
p1123
(dp1124
g3
(dp1125
g5
I5
sg6
I17
sg7
I0
ssg8
(dp1126
g5
I2
sg6
I20
sg7
I0
ssg10
(dp1127
g5
I1
sg6
I11
sg7
I10
ssg12
g13
((lp1128
tp1129
Rp1130
ssS's1451552'
p1131
(dp1132
g3
(dp1133
g5
I9
sg6
I47
sg7
I1
ssg8
(dp1134
g5
I0
sg6
I54
sg7
I3
ssg10
(dp1135
g5
I21
sg6
I30
sg7
I6
ssg12
g13
((lp1136
tp1137
Rp1138
ss.